target datalayout = "e-m:e-p270:32:32-p271:32:32-p272:64:64-i64:64-i128:128-f80:128-n8:16:32:64-S128"
target triple = "x86_64-pc-linux-gnu"

@hf_ecmp_cyclic_setup_attrib_count = internal global i32 0, align 4
@hf_ecmp_cyclic_setup_attrib = internal global i32 0, align 4
@hf_ecmp_mec_offset = internal global i32 0, align 4
@hf_ecmp_sample_period = internal global i32 0, align 4
@hf_ecmp_rx_timeout = internal global i32 0, align 4
@hf_ecmp_rx_action = internal global i32 0, align 4
@hf_ecmp_rx_event_destination = internal global i32 0, align 4
@hf_ecmp_rx_event = internal global i32 0, align 4
@hf_ecmp_rx_late_handler_action = internal global i32 0, align 4
@hf_ecmp_rx_late_handler_event_destination = internal global i32 0, align 4
@hf_ecmp_rx_late_handler_event = internal global i32 0, align 4
@hf_ecmp_transport_addr_scheme = internal global i32 0, align 4
@hf_ecmp_transport_addr = internal global i32 0, align 4
@hf_ecmp_mapping_item_offset = internal global i32 0, align 4
@hf_ecmp_mapping_item_scheme = internal global i32 0, align 4
@hf_ecmp_setup_attribute = internal global i32 0, align 4
@hf_ecmp_mec_period = internal global i32 0, align 4
@ett_cyclic_setup_attribs = internal global i32 0, align 4
@ett_cyclic_setup_attrib_item = internal global i32 0, align 4

; Function Attrs: null_pointer_is_valid sspstrong uwtable
define internal i32 @add_cyclic_setup_attributes(ptr noundef %0, i32 noundef %1, i16 noundef zeroext %2, ptr noundef %3, ptr noundef %4) #0 {
  %6 = alloca ptr, align 8
  %7 = alloca i32, align 4
  %8 = alloca i16, align 2
  %9 = alloca ptr, align 8
  %10 = alloca ptr, align 8
  %11 = alloca ptr, align 8
  %12 = alloca ptr, align 8
  %13 = alloca ptr, align 8
  %14 = alloca ptr, align 8
  %15 = alloca i8, align 1
  %16 = alloca i8, align 1
  store ptr %0, ptr %6, align 8
  store i32 %1, ptr %7, align 4
  store i16 %2, ptr %8, align 2
  store ptr %3, ptr %9, align 8
  store ptr %4, ptr %10, align 8
  call void @llvm.lifetime.start.p0(i64 8, ptr %11) #3
  store ptr null, ptr %11, align 8
  call void @llvm.lifetime.start.p0(i64 8, ptr %12) #3
  store ptr null, ptr %12, align 8
  call void @llvm.lifetime.start.p0(i64 8, ptr %13) #3
  store ptr null, ptr %13, align 8
  call void @llvm.lifetime.start.p0(i64 8, ptr %14) #3
  store ptr null, ptr %14, align 8
  call void @llvm.lifetime.start.p0(i64 1, ptr %15) #3
  %17 = load ptr, ptr %10, align 8
  %18 = load i32, ptr @hf_ecmp_cyclic_setup_attrib_count, align 4
  %19 = load ptr, ptr %9, align 8
  %20 = load i32, ptr %7, align 4
  %21 = add i32 %20, 1
  store i32 %21, ptr %7, align 4
  %22 = call ptr @proto_tree_add_item(ptr noundef %17, i32 noundef %18, ptr noundef %19, i32 noundef %20, i32 noundef 1, i32 noundef 0)
  store ptr %22, ptr %11, align 8
  %23 = load ptr, ptr %11, align 8
  %24 = load i32, ptr @ett_cyclic_setup_attribs, align 4
  %25 = call ptr @proto_item_add_subtree(ptr noundef %23, i32 noundef %24)
  store ptr %25, ptr %12, align 8
  br label %26

26:                                               ; preds = %161, %5
  %27 = load i32, ptr %7, align 4
  %28 = load i16, ptr %8, align 2
  %29 = zext i16 %28 to i32
  %30 = icmp slt i32 %27, %29
  br i1 %30, label %31, label %162

31:                                               ; preds = %26
  %32 = load ptr, ptr %9, align 8
  %33 = load i32, ptr %7, align 4
  %34 = call zeroext i8 @tvb_get_uint8(ptr noundef %32, i32 noundef %33)
  store i8 %34, ptr %15, align 1
  %35 = load ptr, ptr %12, align 8
  %36 = load i32, ptr @hf_ecmp_cyclic_setup_attrib, align 4
  %37 = load ptr, ptr %9, align 8
  %38 = load i32, ptr %7, align 4
  %39 = add i32 %38, 1
  store i32 %39, ptr %7, align 4
  %40 = call ptr @proto_tree_add_item(ptr noundef %35, i32 noundef %36, ptr noundef %37, i32 noundef %38, i32 noundef 1, i32 noundef 0)
  store ptr %40, ptr %13, align 8
  %41 = load ptr, ptr %13, align 8
  %42 = load i32, ptr @ett_cyclic_setup_attrib_item, align 4
  %43 = call ptr @proto_item_add_subtree(ptr noundef %41, i32 noundef %42)
  store ptr %43, ptr %14, align 8
  %44 = load i8, ptr %15, align 1
  %45 = zext i8 %44 to i32
  switch i32 %45, label %160 [
    i32 3, label %46
    i32 4, label %54
    i32 5, label %54
    i32 7, label %62
    i32 8, label %88
    i32 9, label %107
    i32 12, label %121
    i32 0, label %145
    i32 1, label %145
    i32 2, label %145
    i32 6, label %145
    i32 10, label %145
    i32 11, label %145
    i32 13, label %145
    i32 128, label %145
    i32 129, label %145
    i32 130, label %145
    i32 131, label %145
    i32 132, label %145
    i32 133, label %145
    i32 134, label %145
    i32 135, label %152
  ]

46:                                               ; preds = %31
  %47 = load ptr, ptr %14, align 8
  %48 = load i32, ptr @hf_ecmp_mec_offset, align 4
  %49 = load ptr, ptr %9, align 8
  %50 = load i32, ptr %7, align 4
  %51 = call ptr @proto_tree_add_item(ptr noundef %47, i32 noundef %48, ptr noundef %49, i32 noundef %50, i32 noundef 4, i32 noundef 0)
  %52 = load i32, ptr %7, align 4
  %53 = add i32 %52, 4
  store i32 %53, ptr %7, align 4
  br label %161

54:                                               ; preds = %31, %31
  %55 = load ptr, ptr %14, align 8
  %56 = load i32, ptr @hf_ecmp_sample_period, align 4
  %57 = load ptr, ptr %9, align 8
  %58 = load i32, ptr %7, align 4
  %59 = call ptr @proto_tree_add_item(ptr noundef %55, i32 noundef %56, ptr noundef %57, i32 noundef %58, i32 noundef 8, i32 noundef 0)
  %60 = load i32, ptr %7, align 4
  %61 = add i32 %60, 8
  store i32 %61, ptr %7, align 4
  br label %161

62:                                               ; preds = %31
  %63 = load ptr, ptr %14, align 8
  %64 = load i32, ptr @hf_ecmp_rx_timeout, align 4
  %65 = load ptr, ptr %9, align 8
  %66 = load i32, ptr %7, align 4
  %67 = call ptr @proto_tree_add_item(ptr noundef %63, i32 noundef %64, ptr noundef %65, i32 noundef %66, i32 noundef 4, i32 noundef 0)
  %68 = load i32, ptr %7, align 4
  %69 = add i32 %68, 4
  store i32 %69, ptr %7, align 4
  %70 = load ptr, ptr %14, align 8
  %71 = load i32, ptr @hf_ecmp_rx_action, align 4
  %72 = load ptr, ptr %9, align 8
  %73 = load i32, ptr %7, align 4
  %74 = add i32 %73, 1
  store i32 %74, ptr %7, align 4
  %75 = call ptr @proto_tree_add_item(ptr noundef %70, i32 noundef %71, ptr noundef %72, i32 noundef %73, i32 noundef 1, i32 noundef 0)
  %76 = load ptr, ptr %14, align 8
  %77 = load i32, ptr @hf_ecmp_rx_event_destination, align 4
  %78 = load ptr, ptr %9, align 8
  %79 = load i32, ptr %7, align 4
  %80 = add i32 %79, 1
  store i32 %80, ptr %7, align 4
  %81 = call ptr @proto_tree_add_item(ptr noundef %76, i32 noundef %77, ptr noundef %78, i32 noundef %79, i32 noundef 1, i32 noundef 0)
  %82 = load ptr, ptr %14, align 8
  %83 = load i32, ptr @hf_ecmp_rx_event, align 4
  %84 = load ptr, ptr %9, align 8
  %85 = load i32, ptr %7, align 4
  %86 = add i32 %85, 1
  store i32 %86, ptr %7, align 4
  %87 = call ptr @proto_tree_add_item(ptr noundef %82, i32 noundef %83, ptr noundef %84, i32 noundef %85, i32 noundef 1, i32 noundef 0)
  br label %161

88:                                               ; preds = %31
  %89 = load ptr, ptr %14, align 8
  %90 = load i32, ptr @hf_ecmp_rx_late_handler_action, align 4
  %91 = load ptr, ptr %9, align 8
  %92 = load i32, ptr %7, align 4
  %93 = add i32 %92, 1
  store i32 %93, ptr %7, align 4
  %94 = call ptr @proto_tree_add_item(ptr noundef %89, i32 noundef %90, ptr noundef %91, i32 noundef %92, i32 noundef 1, i32 noundef 0)
  %95 = load ptr, ptr %14, align 8
  %96 = load i32, ptr @hf_ecmp_rx_late_handler_event_destination, align 4
  %97 = load ptr, ptr %9, align 8
  %98 = load i32, ptr %7, align 4
  %99 = add i32 %98, 1
  store i32 %99, ptr %7, align 4
  %100 = call ptr @proto_tree_add_item(ptr noundef %95, i32 noundef %96, ptr noundef %97, i32 noundef %98, i32 noundef 1, i32 noundef 0)
  %101 = load ptr, ptr %14, align 8
  %102 = load i32, ptr @hf_ecmp_rx_late_handler_event, align 4
  %103 = load ptr, ptr %9, align 8
  %104 = load i32, ptr %7, align 4
  %105 = add i32 %104, 1
  store i32 %105, ptr %7, align 4
  %106 = call ptr @proto_tree_add_item(ptr noundef %101, i32 noundef %102, ptr noundef %103, i32 noundef %104, i32 noundef 1, i32 noundef 0)
  br label %161

107:                                              ; preds = %31
  %108 = load ptr, ptr %14, align 8
  %109 = load i32, ptr @hf_ecmp_transport_addr_scheme, align 4
  %110 = load ptr, ptr %9, align 8
  %111 = load i32, ptr %7, align 4
  %112 = add i32 %111, 1
  store i32 %112, ptr %7, align 4
  %113 = call ptr @proto_tree_add_item(ptr noundef %108, i32 noundef %109, ptr noundef %110, i32 noundef %111, i32 noundef 1, i32 noundef 0)
  %114 = load ptr, ptr %14, align 8
  %115 = load i32, ptr @hf_ecmp_transport_addr, align 4
  %116 = load ptr, ptr %9, align 8
  %117 = load i32, ptr %7, align 4
  %118 = call ptr @proto_tree_add_item(ptr noundef %114, i32 noundef %115, ptr noundef %116, i32 noundef %117, i32 noundef 4, i32 noundef 0)
  %119 = load i32, ptr %7, align 4
  %120 = add i32 %119, 4
  store i32 %120, ptr %7, align 4
  br label %161

121:                                              ; preds = %31
  call void @llvm.lifetime.start.p0(i64 1, ptr %16) #3
  %122 = load ptr, ptr %14, align 8
  %123 = load i32, ptr @hf_ecmp_mapping_item_offset, align 4
  %124 = load ptr, ptr %9, align 8
  %125 = load i32, ptr %7, align 4
  %126 = add i32 %125, 1
  store i32 %126, ptr %7, align 4
  %127 = call ptr @proto_tree_add_item(ptr noundef %122, i32 noundef %123, ptr noundef %124, i32 noundef %125, i32 noundef 1, i32 noundef 0)
  %128 = load ptr, ptr %9, align 8
  %129 = load i32, ptr %7, align 4
  %130 = call zeroext i8 @tvb_get_uint8(ptr noundef %128, i32 noundef %129)
  store i8 %130, ptr %16, align 1
  %131 = load ptr, ptr %14, align 8
  %132 = load i32, ptr @hf_ecmp_mapping_item_scheme, align 4
  %133 = load ptr, ptr %9, align 8
  %134 = load i32, ptr %7, align 4
  %135 = add i32 %134, 1
  store i32 %135, ptr %7, align 4
  %136 = call ptr @proto_tree_add_item(ptr noundef %131, i32 noundef %132, ptr noundef %133, i32 noundef %134, i32 noundef 1, i32 noundef 0)
  %137 = load ptr, ptr %6, align 8
  %138 = load i32, ptr %7, align 4
  %139 = load i8, ptr %16, align 1
  %140 = load ptr, ptr %9, align 8
  %141 = load ptr, ptr %14, align 8
  %142 = call i32 @get_address_scheme(ptr noundef %137, i32 noundef %138, i8 noundef zeroext %139, ptr noundef %140, ptr noundef %141)
  store i32 %142, ptr %7, align 4
  %143 = load i32, ptr %7, align 4
  %144 = add i32 %143, 1
  store i32 %144, ptr %7, align 4
  call void @llvm.lifetime.end.p0(i64 1, ptr %16) #3
  br label %161

145:                                              ; preds = %31, %31, %31, %31, %31, %31, %31, %31, %31, %31, %31, %31, %31, %31
  %146 = load ptr, ptr %14, align 8
  %147 = load i32, ptr @hf_ecmp_setup_attribute, align 4
  %148 = load ptr, ptr %9, align 8
  %149 = load i32, ptr %7, align 4
  %150 = add i32 %149, 1
  store i32 %150, ptr %7, align 4
  %151 = call ptr @proto_tree_add_item(ptr noundef %146, i32 noundef %147, ptr noundef %148, i32 noundef %149, i32 noundef 1, i32 noundef 0)
  br label %161

152:                                              ; preds = %31
  %153 = load ptr, ptr %14, align 8
  %154 = load i32, ptr @hf_ecmp_mec_period, align 4
  %155 = load ptr, ptr %9, align 8
  %156 = load i32, ptr %7, align 4
  %157 = call ptr @proto_tree_add_item(ptr noundef %153, i32 noundef %154, ptr noundef %155, i32 noundef %156, i32 noundef 4, i32 noundef 0)
  %158 = load i32, ptr %7, align 4
  %159 = add i32 %158, 4
  store i32 %159, ptr %7, align 4
  br label %161

160:                                              ; preds = %31
  br label %161

161:                                              ; preds = %160, %152, %145, %121, %107, %88, %62, %54, %46
  br label %26, !llvm.loop !25

162:                                              ; preds = %26
  %163 = load i32, ptr %7, align 4
  call void @llvm.lifetime.end.p0(i64 1, ptr %15) #3
  call void @llvm.lifetime.end.p0(i64 8, ptr %14) #3
  call void @llvm.lifetime.end.p0(i64 8, ptr %13) #3
  call void @llvm.lifetime.end.p0(i64 8, ptr %12) #3
  call void @llvm.lifetime.end.p0(i64 8, ptr %11) #3
  ret i32 %163
}