; Function Attrs: null_pointer_is_valid sspstrong uwtable
define internal fastcc void @add_cyclic_setup_attributes(ptr noundef %0, i32 noundef range(i32 0, 65536) %1, i16 noundef zeroext %2, ptr noundef %3, ptr noundef %4) unnamed_addr #0 {
  %6 = load i32, ptr @hf_ecmp_cyclic_setup_attrib_count, align 4
  %7 = add nuw nsw i32 %1, 1
  %8 = tail call ptr @proto_tree_add_item(ptr noundef %4, i32 noundef %6, ptr noundef %3, i32 noundef %1, i32 noundef 1, i32 noundef 0)
  %9 = load i32, ptr @ett_cyclic_setup_attribs, align 4
  %10 = tail call ptr @proto_item_add_subtree(ptr noundef %8, i32 noundef %9)
  %11 = zext i16 %2 to i32
  %12 = icmp samesign ult i32 %7, %11
  br i1 %12, label %.lr.ph, label %._crit_edge

.lr.ph:                                           ; preds = %5, %75
  %.071 = phi i32 [ %.1, %75 ], [ %7, %5 ]
  %13 = tail call zeroext i8 @tvb_get_uint8(ptr noundef %3, i32 noundef %.071)
  %14 = load i32, ptr @hf_ecmp_cyclic_setup_attrib, align 4
  %15 = add nsw i32 %.071, 1
  %16 = tail call ptr @proto_tree_add_item(ptr noundef %10, i32 noundef %14, ptr noundef %3, i32 noundef %.071, i32 noundef 1, i32 noundef 0)
  %17 = load i32, ptr @ett_cyclic_setup_attrib_item, align 4
  %18 = tail call ptr @proto_item_add_subtree(ptr noundef %16, i32 noundef %17)
  switch i8 %13, label %75 [
    i8 3, label %19
    i8 4, label %23
    i8 5, label %23
    i8 7, label %27
    i8 8, label %40
    i8 9, label %50
    i8 12, label %57
    i8 0, label %67
    i8 1, label %67
    i8 2, label %67
    i8 6, label %67
    i8 10, label %67
    i8 11, label %67
    i8 13, label %67
    i8 -128, label %67
    i8 -127, label %67
    i8 -126, label %67
    i8 -125, label %67
    i8 -124, label %67
    i8 -123, label %67
    i8 -122, label %67
    i8 -121, label %71
  ]

19:                                               ; preds = %.lr.ph
  %20 = load i32, ptr @hf_ecmp_mec_offset, align 4
  %21 = tail call ptr @proto_tree_add_item(ptr noundef %18, i32 noundef %20, ptr noundef %3, i32 noundef %15, i32 noundef 4, i32 noundef 0)
  %22 = add nsw i32 %.071, 5
  br label %75

23:                                               ; preds = %.lr.ph, %.lr.ph
  %24 = load i32, ptr @hf_ecmp_sample_period, align 4
  %25 = tail call ptr @proto_tree_add_item(ptr noundef %18, i32 noundef %24, ptr noundef %3, i32 noundef %15, i32 noundef 8, i32 noundef 0)
  %26 = add nsw i32 %.071, 9
  br label %75

27:                                               ; preds = %.lr.ph
  %28 = load i32, ptr @hf_ecmp_rx_timeout, align 4
  %29 = tail call ptr @proto_tree_add_item(ptr noundef %18, i32 noundef %28, ptr noundef %3, i32 noundef %15, i32 noundef 4, i32 noundef 0)
  %30 = add nsw i32 %.071, 5
  %31 = load i32, ptr @hf_ecmp_rx_action, align 4
  %32 = add nsw i32 %.071, 6
  %33 = tail call ptr @proto_tree_add_item(ptr noundef %18, i32 noundef %31, ptr noundef %3, i32 noundef %30, i32 noundef 1, i32 noundef 0)
  %34 = load i32, ptr @hf_ecmp_rx_event_destination, align 4
  %35 = add nsw i32 %.071, 7
  %36 = tail call ptr @proto_tree_add_item(ptr noundef %18, i32 noundef %34, ptr noundef %3, i32 noundef %32, i32 noundef 1, i32 noundef 0)
  %37 = load i32, ptr @hf_ecmp_rx_event, align 4
  %38 = add nsw i32 %.071, 8
  %39 = tail call ptr @proto_tree_add_item(ptr noundef %18, i32 noundef %37, ptr noundef %3, i32 noundef %35, i32 noundef 1, i32 noundef 0)
  br label %75

40:                                               ; preds = %.lr.ph
  %41 = load i32, ptr @hf_ecmp_rx_late_handler_action, align 4
  %42 = add nsw i32 %.071, 2
  %43 = tail call ptr @proto_tree_add_item(ptr noundef %18, i32 noundef %41, ptr noundef %3, i32 noundef %15, i32 noundef 1, i32 noundef 0)
  %44 = load i32, ptr @hf_ecmp_rx_late_handler_event_destination, align 4
  %45 = add nsw i32 %.071, 3
  %46 = tail call ptr @proto_tree_add_item(ptr noundef %18, i32 noundef %44, ptr noundef %3, i32 noundef %42, i32 noundef 1, i32 noundef 0)
  %47 = load i32, ptr @hf_ecmp_rx_late_handler_event, align 4
  %48 = add nsw i32 %.071, 4
  %49 = tail call ptr @proto_tree_add_item(ptr noundef %18, i32 noundef %47, ptr noundef %3, i32 noundef %45, i32 noundef 1, i32 noundef 0)
  br label %75

50:                                               ; preds = %.lr.ph
  %51 = load i32, ptr @hf_ecmp_transport_addr_scheme, align 4
  %52 = add nsw i32 %.071, 2
  %53 = tail call ptr @proto_tree_add_item(ptr noundef %18, i32 noundef %51, ptr noundef %3, i32 noundef %15, i32 noundef 1, i32 noundef 0)
  %54 = load i32, ptr @hf_ecmp_transport_addr, align 4
  %55 = tail call ptr @proto_tree_add_item(ptr noundef %18, i32 noundef %54, ptr noundef %3, i32 noundef %52, i32 noundef 4, i32 noundef 0)
  %56 = add nsw i32 %.071, 6
  br label %75

57:                                               ; preds = %.lr.ph
  %58 = load i32, ptr @hf_ecmp_mapping_item_offset, align 4
  %59 = add nsw i32 %.071, 2
  %60 = tail call ptr @proto_tree_add_item(ptr noundef %18, i32 noundef %58, ptr noundef %3, i32 noundef %15, i32 noundef 1, i32 noundef 0)
  %61 = tail call zeroext i8 @tvb_get_uint8(ptr noundef %3, i32 noundef %59)
  %62 = load i32, ptr @hf_ecmp_mapping_item_scheme, align 4
  %63 = add nsw i32 %.071, 3
  %64 = tail call ptr @proto_tree_add_item(ptr noundef %18, i32 noundef %62, ptr noundef %3, i32 noundef %59, i32 noundef 1, i32 noundef 0)
  %65 = tail call fastcc i32 @get_address_scheme(ptr noundef %0, i32 noundef %63, i8 noundef zeroext %61, ptr noundef %3, ptr noundef %18)
  %66 = add i32 %65, 1
  br label %75

67:                                               ; preds = %.lr.ph, %.lr.ph, %.lr.ph, %.lr.ph, %.lr.ph, %.lr.ph, %.lr.ph, %.lr.ph, %.lr.ph, %.lr.ph, %.lr.ph, %.lr.ph, %.lr.ph, %.lr.ph
  %68 = load i32, ptr @hf_ecmp_setup_attribute, align 4
  %69 = add nsw i32 %.071, 2
  %70 = tail call ptr @proto_tree_add_item(ptr noundef %18, i32 noundef %68, ptr noundef %3, i32 noundef %15, i32 noundef 1, i32 noundef 0)
  br label %75

71:                                               ; preds = %.lr.ph
  %72 = load i32, ptr @hf_ecmp_mec_period, align 4
  %73 = tail call ptr @proto_tree_add_item(ptr noundef %18, i32 noundef %72, ptr noundef %3, i32 noundef %15, i32 noundef 4, i32 noundef 0)
  %74 = add nsw i32 %.071, 5
  br label %75

75:                                               ; preds = %.lr.ph, %71, %67, %57, %50, %40, %27, %23, %19
  %.1 = phi i32 [ %15, %.lr.ph ], [ %74, %71 ], [ %69, %67 ], [ %66, %57 ], [ %56, %50 ], [ %48, %40 ], [ %38, %27 ], [ %26, %23 ], [ %22, %19 ]
  %76 = icmp slt i32 %.1, %11
  br i1 %76, label %.lr.ph, label %._crit_edge, !llvm.loop !23

._crit_edge:                                      ; preds = %75, %5
  ret void
}